target datalayout = "e-m:e-p270:32:32-p271:32:32-p272:64:64-i64:64-i128:128-f80:128-n8:16:32:64-S128"
target triple = "x86_64-pc-linux-gnu"

%struct.ascend_state_t = type { ptr, ptr, i32, ptr, ptr, ptr, i8, i64, i64, i32, i32, i64, i32, %struct.ascend_token_t }
%struct.ascend_token_t = type { i32, i32, i16, i8, [64 x i8] }
%struct.wtap_rec = type { i32, i32, i32, %struct.nstime_t, i32, %struct.nstime_t, i8, %union.anon, ptr, i8, %struct.Buffer, %struct.Buffer }
%struct.nstime_t = type { i64, i32 }
%union.anon = type { %struct.wtap_packet_header }
%struct.wtap_packet_header = type { i32, i32, i32, i32, %union.wtap_pseudo_header }
%union.wtap_pseudo_header = type { %struct.erf_mc_phdr }
%struct.erf_mc_phdr = type { %struct.erf_phdr, [16 x %struct.erf_ehdr], %union.anon.1 }
%struct.erf_phdr = type { i64, i8, i8, i16, i16, i16 }
%struct.erf_ehdr = type { i64 }
%union.anon.1 = type { i32 }
%struct.Buffer = type { ptr, i64, i64, i64 }
%struct.ascend_t = type { i64, i8, i64 }

@.str.12 = private unnamed_addr constant [12 x i8] c"parse error\00", align 1
@.str.13 = private unnamed_addr constant [26 x i8] c"no data returned by parse\00", align 1

; Function Attrs: inlinehint nounwind null_pointer_is_valid sspstrong uwtable
define internal ptr @ws_buffer_start_ptr(ptr noundef %0) #10 {
  %2 = alloca ptr, align 8
  store ptr %0, ptr %2, align 8
  %3 = load ptr, ptr %2, align 8
  %4 = getelementptr inbounds nuw %struct.Buffer, ptr %3, i32 0, i32 0
  %5 = load ptr, ptr %4, align 8
  %6 = load ptr, ptr %2, align 8
  %7 = getelementptr inbounds nuw %struct.Buffer, ptr %6, i32 0, i32 2
  %8 = load i64, ptr %7, align 8
  %9 = getelementptr i8, ptr %5, i64 %8
  ret ptr %9
}

; Function Attrs: null_pointer_is_valid sspstrong uwtable
define internal zeroext i1 @parse_ascend(ptr noundef %0, ptr noundef %1, ptr noundef %2, i32 noundef %3, ptr noundef %4, ptr noundef %5, ptr noundef %6) #0 {
  %8 = alloca i1, align 1
  %9 = alloca ptr, align 8
  %10 = alloca ptr, align 8
  %11 = alloca ptr, align 8
  %12 = alloca i32, align 4
  %13 = alloca ptr, align 8
  %14 = alloca ptr, align 8
  %15 = alloca ptr, align 8
  %16 = alloca %struct.ascend_state_t, align 8
  %17 = alloca i32, align 4
  %18 = alloca i32, align 4
  store ptr %0, ptr %9, align 8
  store ptr %1, ptr %10, align 8
  store ptr %2, ptr %11, align 8
  store i32 %3, ptr %12, align 4
  store ptr %4, ptr %13, align 8
  store ptr %5, ptr %14, align 8
  store ptr %6, ptr %15, align 8
  call void @llvm.lifetime.start.p0(i64 168, ptr %16) #11
  call void @llvm.memset.p0.i64(ptr align 8 %16, i8 0, i64 168, i1 false)
  call void @llvm.lifetime.start.p0(i64 4, ptr %17) #11
  %19 = load ptr, ptr %11, align 8
  %20 = getelementptr inbounds nuw %struct.wtap_rec, ptr %19, i32 0, i32 11
  %21 = load i32, ptr %12, align 4
  %22 = zext i32 %21 to i64
  call void @ws_buffer_assure_space(ptr noundef %20, i64 noundef %22)
  %23 = load ptr, ptr %10, align 8
  %24 = getelementptr inbounds nuw %struct.ascend_state_t, ptr %16, i32 0, i32 0
  store ptr %23, ptr %24, align 8
  %25 = load ptr, ptr %11, align 8
  %26 = getelementptr inbounds nuw %struct.wtap_rec, ptr %25, i32 0, i32 7
  %27 = getelementptr inbounds nuw %struct.wtap_packet_header, ptr %26, i32 0, i32 4
  %28 = getelementptr inbounds nuw %struct.ascend_state_t, ptr %16, i32 0, i32 4
  store ptr %27, ptr %28, align 8
  %29 = load ptr, ptr %11, align 8
  %30 = getelementptr inbounds nuw %struct.wtap_rec, ptr %29, i32 0, i32 11
  %31 = call ptr @ws_buffer_start_ptr(ptr noundef %30)
  %32 = load ptr, ptr %14, align 8
  %33 = load ptr, ptr %15, align 8
  %34 = call zeroext i1 @run_ascend_parser(ptr noundef %31, ptr noundef %16, ptr noundef %32, ptr noundef %33)
  %35 = zext i1 %34 to i32
  store i32 %35, ptr %17, align 4
  %36 = getelementptr inbounds nuw %struct.ascend_state_t, ptr %16, i32 0, i32 8
  %37 = load i64, ptr %36, align 8
  %38 = icmp ne i64 %37, 0
  br i1 %38, label %39, label %47

39:                                               ; preds = %7
  %40 = load ptr, ptr %13, align 8
  %41 = icmp ne ptr %40, null
  br i1 %41, label %42, label %46

42:                                               ; preds = %39
  %43 = getelementptr inbounds nuw %struct.ascend_state_t, ptr %16, i32 0, i32 8
  %44 = load i64, ptr %43, align 8
  %45 = load ptr, ptr %13, align 8
  store i64 %44, ptr %45, align 8
  br label %46

46:                                               ; preds = %42, %39
  br label %55

47:                                               ; preds = %7
  %48 = load ptr, ptr %13, align 8
  %49 = icmp ne ptr %48, null
  br i1 %49, label %50, label %54

50:                                               ; preds = %47
  %51 = load ptr, ptr %10, align 8
  %52 = call i64 @file_tell(ptr noundef %51)
  %53 = load ptr, ptr %13, align 8
  store i64 %52, ptr %53, align 8
  br label %54

54:                                               ; preds = %50, %47
  store i32 0, ptr %17, align 4
  br label %55

55:                                               ; preds = %54, %46
  %56 = getelementptr inbounds nuw %struct.ascend_state_t, ptr %16, i32 0, i32 10
  %57 = load i32, ptr %56, align 4
  %58 = icmp ne i32 %57, 0
  br i1 %58, label %59, label %123

59:                                               ; preds = %55
  %60 = load ptr, ptr %9, align 8
  %61 = getelementptr inbounds nuw %struct.ascend_t, ptr %60, i32 0, i32 1
  %62 = load i8, ptr %61, align 8, !range !9, !noundef !10
  %63 = trunc i8 %62 to i1
  br i1 %63, label %90, label %64

64:                                               ; preds = %59
  %65 = load ptr, ptr %9, align 8
  %66 = getelementptr inbounds nuw %struct.ascend_t, ptr %65, i32 0, i32 1
  store i8 1, ptr %66, align 8
  %67 = getelementptr inbounds nuw %struct.ascend_state_t, ptr %16, i32 0, i32 6
  %68 = load i8, ptr %67, align 8, !range !9, !noundef !10
  %69 = trunc i8 %68 to i1
  br i1 %69, label %70, label %75

70:                                               ; preds = %64
  %71 = getelementptr inbounds nuw %struct.ascend_state_t, ptr %16, i32 0, i32 7
  %72 = load i64, ptr %71, align 8
  %73 = load ptr, ptr %9, align 8
  %74 = getelementptr inbounds nuw %struct.ascend_t, ptr %73, i32 0, i32 0
  store i64 %72, ptr %74, align 8
  br label %75

75:                                               ; preds = %70, %64
  %76 = load ptr, ptr %9, align 8
  %77 = getelementptr inbounds nuw %struct.ascend_t, ptr %76, i32 0, i32 0
  %78 = load i64, ptr %77, align 8
  %79 = getelementptr inbounds nuw %struct.ascend_state_t, ptr %16, i32 0, i32 11
  %80 = load i64, ptr %79, align 8
  %81 = icmp sgt i64 %78, %80
  br i1 %81, label %82, label %89

82:                                               ; preds = %75
  %83 = getelementptr inbounds nuw %struct.ascend_state_t, ptr %16, i32 0, i32 11
  %84 = load i64, ptr %83, align 8
  %85 = load ptr, ptr %9, align 8
  %86 = getelementptr inbounds nuw %struct.ascend_t, ptr %85, i32 0, i32 0
  %87 = load i64, ptr %86, align 8
  %88 = sub i64 %87, %84
  store i64 %88, ptr %86, align 8
  br label %89

89:                                               ; preds = %82, %75
  br label %90

90:                                               ; preds = %89, %59
  %91 = load ptr, ptr %11, align 8
  %92 = getelementptr inbounds nuw %struct.wtap_rec, ptr %91, i32 0, i32 0
  store i32 0, ptr %92, align 8
  %93 = call ptr @wtap_block_create(i32 noundef 5)
  %94 = load ptr, ptr %11, align 8
  %95 = getelementptr inbounds nuw %struct.wtap_rec, ptr %94, i32 0, i32 8
  store ptr %93, ptr %95, align 8
  %96 = load ptr, ptr %11, align 8
  %97 = getelementptr inbounds nuw %struct.wtap_rec, ptr %96, i32 0, i32 1
  store i32 3, ptr %97, align 4
  %98 = getelementptr inbounds nuw %struct.ascend_state_t, ptr %16, i32 0, i32 11
  %99 = load i64, ptr %98, align 8
  %100 = load ptr, ptr %9, align 8
  %101 = getelementptr inbounds nuw %struct.ascend_t, ptr %100, i32 0, i32 0
  %102 = load i64, ptr %101, align 8
  %103 = add i64 %99, %102
  %104 = load ptr, ptr %11, align 8
  %105 = getelementptr inbounds nuw %struct.wtap_rec, ptr %104, i32 0, i32 3
  %106 = getelementptr inbounds nuw %struct.nstime_t, ptr %105, i32 0, i32 0
  store i64 %103, ptr %106, align 8
  %107 = getelementptr inbounds nuw %struct.ascend_state_t, ptr %16, i32 0, i32 12
  %108 = load i32, ptr %107, align 8
  %109 = mul i32 %108, 1000
  %110 = load ptr, ptr %11, align 8
  %111 = getelementptr inbounds nuw %struct.wtap_rec, ptr %110, i32 0, i32 3
  %112 = getelementptr inbounds nuw %struct.nstime_t, ptr %111, i32 0, i32 1
  store i32 %109, ptr %112, align 8
  %113 = getelementptr inbounds nuw %struct.ascend_state_t, ptr %16, i32 0, i32 10
  %114 = load i32, ptr %113, align 4
  %115 = load ptr, ptr %11, align 8
  %116 = getelementptr inbounds nuw %struct.wtap_rec, ptr %115, i32 0, i32 7
  %117 = getelementptr inbounds nuw %struct.wtap_packet_header, ptr %116, i32 0, i32 0
  store i32 %114, ptr %117, align 8
  %118 = getelementptr inbounds nuw %struct.ascend_state_t, ptr %16, i32 0, i32 9
  %119 = load i32, ptr %118, align 8
  %120 = load ptr, ptr %11, align 8
  %121 = getelementptr inbounds nuw %struct.wtap_rec, ptr %120, i32 0, i32 7
  %122 = getelementptr inbounds nuw %struct.wtap_packet_header, ptr %121, i32 0, i32 1
  store i32 %119, ptr %122, align 4
  store i1 true, ptr %8, align 1
  store i32 1, ptr %18, align 4
  br label %154

123:                                              ; preds = %55
  %124 = load i32, ptr %17, align 4
  %125 = icmp ne i32 %124, 0
  br i1 %125, label %126, label %144

126:                                              ; preds = %123
  %127 = load ptr, ptr %14, align 8
  %128 = load i32, ptr %127, align 4
  %129 = icmp eq i32 %128, 0
  br i1 %129, label %130, label %143

130:                                              ; preds = %126
  %131 = load ptr, ptr %14, align 8
  store i32 -13, ptr %131, align 4
  %132 = getelementptr inbounds nuw %struct.ascend_state_t, ptr %16, i32 0, i32 1
  %133 = load ptr, ptr %132, align 8
  %134 = icmp ne ptr %133, null
  br i1 %134, label %135, label %138

135:                                              ; preds = %130
  %136 = getelementptr inbounds nuw %struct.ascend_state_t, ptr %16, i32 0, i32 1
  %137 = load ptr, ptr %136, align 8
  br label %139

138:                                              ; preds = %130
  br label %139

139:                                              ; preds = %138, %135
  %140 = phi ptr [ %137, %135 ], [ @.str.12, %138 ]
  %141 = call noalias ptr @g_strdup(ptr noundef %140)
  %142 = load ptr, ptr %15, align 8
  store ptr %141, ptr %142, align 8
  br label %143

143:                                              ; preds = %139, %126
  br label %153

144:                                              ; preds = %123
  %145 = load ptr, ptr %14, align 8
  %146 = load i32, ptr %145, align 4
  %147 = icmp eq i32 %146, 0
  br i1 %147, label %148, label %152

148:                                              ; preds = %144
  %149 = load ptr, ptr %14, align 8
  store i32 -13, ptr %149, align 4
  %150 = call noalias ptr @g_strdup(ptr noundef @.str.13)
  %151 = load ptr, ptr %15, align 8
  store ptr %150, ptr %151, align 8
  br label %152

152:                                              ; preds = %148, %144
  br label %153

153:                                              ; preds = %152, %143
  store i1 false, ptr %8, align 1
  store i32 1, ptr %18, align 4
  br label %154

154:                                              ; preds = %153, %90
  call void @llvm.lifetime.end.p0(i64 4, ptr %17) #11
  call void @llvm.lifetime.end.p0(i64 168, ptr %16) #11
  %155 = load i1, ptr %8, align 1
  ret i1 %155
}