; Function Attrs: null_pointer_is_valid sspstrong uwtable
define internal fastcc noundef zeroext i1 @parse_ascend(ptr noundef captures(none) %0, ptr noundef %1, ptr noundef %2, i32 noundef %3, ptr noundef writeonly captures(address_is_null) %4, ptr noundef %5, ptr noundef %6) unnamed_addr #0 {
  %8 = alloca %struct.ascend_state_t, align 8
  call void @llvm.lifetime.start.p0(i64 168, ptr nonnull %8) #5
  %9 = getelementptr inbounds nuw i8, ptr %8, i64 8
  call void @llvm.memset.p0.i64(ptr noundef nonnull align 8 dereferenceable(168) %9, i8 0, i64 160, i1 false)
  %10 = getelementptr inbounds nuw i8, ptr %2, i64 280
  %11 = zext i32 %3 to i64
  tail call void @ws_buffer_assure_space(ptr noundef nonnull %10, i64 noundef %11)
  store ptr %1, ptr %8, align 8
  %12 = getelementptr inbounds nuw i8, ptr %2, i64 64
  %13 = getelementptr inbounds nuw i8, ptr %2, i64 80
  %14 = getelementptr inbounds nuw i8, ptr %8, i64 32
  store ptr %13, ptr %14, align 8
  %.val = load ptr, ptr %10, align 8
  %15 = getelementptr i8, ptr %2, i64 296
  %.val41 = load i64, ptr %15, align 8
  %16 = getelementptr i8, ptr %.val, i64 %.val41
  %17 = call zeroext i1 @run_ascend_parser(ptr noundef %16, ptr noundef nonnull %8, ptr noundef %5, ptr noundef %6)
  %18 = getelementptr inbounds nuw i8, ptr %8, i64 64
  %19 = load i64, ptr %18, align 8
  %.not = icmp eq i64 %19, 0
  %.not37 = icmp eq ptr %4, null
  br i1 %.not, label %21, label %20

20:                                               ; preds = %7
  br i1 %.not37, label %24, label %.sink.split

21:                                               ; preds = %7
  br i1 %.not37, label %24, label %22

22:                                               ; preds = %21
  %23 = call i64 @file_tell(ptr noundef %1)
  br label %.sink.split

.sink.split:                                      ; preds = %20, %22
  %.sink = phi i64 [ %23, %22 ], [ %19, %20 ]
  %.0.shrunk.ph = phi i1 [ false, %22 ], [ %17, %20 ]
  store i64 %.sink, ptr %4, align 8
  br label %24

24:                                               ; preds = %.sink.split, %21, %20
  %.0.shrunk = phi i1 [ %17, %20 ], [ false, %21 ], [ %.0.shrunk.ph, %.sink.split ]
  %25 = getelementptr inbounds nuw i8, ptr %8, i64 76
  %26 = load i32, ptr %25, align 4
  %.not39 = icmp ne i32 %26, 0
  br i1 %.not39, label %27, label %62

27:                                               ; preds = %24
  %28 = getelementptr inbounds nuw i8, ptr %0, i64 8
  %29 = load i8, ptr %28, align 8, !range !9, !noundef !10
  %30 = trunc nuw i8 %29 to i1
  br i1 %30, label %45, label %31

31:                                               ; preds = %27
  store i8 1, ptr %28, align 8
  %32 = getelementptr inbounds nuw i8, ptr %8, i64 48
  %33 = load i8, ptr %32, align 8, !range !9, !noundef !10
  %34 = trunc nuw i8 %33 to i1
  br i1 %34, label %35, label %._crit_edge

._crit_edge:                                      ; preds = %31
  %.pre = load i64, ptr %0, align 8
  br label %38

35:                                               ; preds = %31
  %36 = getelementptr inbounds nuw i8, ptr %8, i64 56
  %37 = load i64, ptr %36, align 8
  store i64 %37, ptr %0, align 8
  br label %38

38:                                               ; preds = %._crit_edge, %35
  %39 = phi i64 [ %.pre, %._crit_edge ], [ %37, %35 ]
  %40 = getelementptr inbounds nuw i8, ptr %8, i64 80
  %41 = load i64, ptr %40, align 8
  %42 = icmp sgt i64 %39, %41
  br i1 %42, label %43, label %45

43:                                               ; preds = %38
  %44 = sub i64 %39, %41
  store i64 %44, ptr %0, align 8
  br label %45

45:                                               ; preds = %38, %43, %27
  store i32 0, ptr %2, align 8
  %46 = call ptr @wtap_block_create(i32 noundef 5)
  %47 = getelementptr inbounds nuw i8, ptr %2, i64 232
  store ptr %46, ptr %47, align 8
  %48 = getelementptr inbounds nuw i8, ptr %2, i64 4
  store i32 3, ptr %48, align 4
  %49 = getelementptr inbounds nuw i8, ptr %8, i64 80
  %50 = load i64, ptr %49, align 8
  %51 = load i64, ptr %0, align 8
  %52 = add i64 %51, %50
  %53 = getelementptr inbounds nuw i8, ptr %2, i64 16
  store i64 %52, ptr %53, align 8
  %54 = getelementptr inbounds nuw i8, ptr %8, i64 88
  %55 = load i32, ptr %54, align 8
  %56 = mul i32 %55, 1000
  %57 = getelementptr inbounds nuw i8, ptr %2, i64 24
  store i32 %56, ptr %57, align 8
  %58 = load i32, ptr %25, align 4
  store i32 %58, ptr %12, align 8
  %59 = getelementptr inbounds nuw i8, ptr %8, i64 72
  %60 = load i32, ptr %59, align 8
  %61 = getelementptr inbounds nuw i8, ptr %2, i64 68
  store i32 %60, ptr %61, align 4
  br label %74

62:                                               ; preds = %24
  %63 = load i32, ptr %5, align 4
  %64 = icmp eq i32 %63, 0
  br i1 %.0.shrunk, label %65, label %71

65:                                               ; preds = %62
  br i1 %64, label %66, label %74

66:                                               ; preds = %65
  store i32 -13, ptr %5, align 4
  %67 = getelementptr inbounds nuw i8, ptr %8, i64 8
  %68 = load ptr, ptr %67, align 8
  %.not40 = icmp eq ptr %68, null
  %69 = select i1 %.not40, ptr @.str.12, ptr %68
  %70 = call noalias ptr @g_strdup(ptr noundef nonnull %69)
  store ptr %70, ptr %6, align 8
  br label %74

71:                                               ; preds = %62
  br i1 %64, label %72, label %74

72:                                               ; preds = %71
  store i32 -13, ptr %5, align 4
  %73 = call noalias ptr @g_strdup(ptr noundef nonnull @.str.13)
  store ptr %73, ptr %6, align 8
  br label %74

74:                                               ; preds = %66, %65, %72, %71, %45
  call void @llvm.lifetime.end.p0(i64 168, ptr nonnull %8) #5
  ret i1 %.not39
}